; ModuleID = '9/121.c'
source_filename = "9/121.c"
target datalayout = "e-m:e-p270:32:32-p271:32:32-p272:64:64-i64:64-f80:128-n8:16:32:64-S128"
target triple = "x86_64-pc-linux-gnu"

%struct.patient = type { [10 x i8], i32 }

@.str = private unnamed_addr constant [3 x i8] c"%d\00", align 1
@.str.1 = private unnamed_addr constant [6 x i8] c"%s %d\00", align 1
@.str.2 = private unnamed_addr constant [4 x i8] c"%s\0A\00", align 1

; Function Attrs: noinline nounwind uwtable
define dso_local void @main() #0 {
  %1 = alloca [200 x %struct.patient], align 16
  %2 = alloca i32, align 4
  %3 = alloca i32, align 4
  %4 = alloca i32, align 4
  store i32 100, i32* %4, align 4
  %5 = call i32 (i8*, ...) @__isoc99_scanf(i8* getelementptr inbounds ([3 x i8], [3 x i8]* @.str, i64 0, i64 0), i32* %2)
  store i32 0, i32* %3, align 4
  br label %6

6:                                                ; preds = %43, %0
  %7 = load i32, i32* %3, align 4
  %8 = load i32, i32* %2, align 4
  %9 = icmp slt i32 %7, %8
  br i1 %9, label %10, label %46

10:                                               ; preds = %6
  %11 = load i32, i32* %3, align 4
  %12 = sext i32 %11 to i64
  %13 = getelementptr inbounds [200 x %struct.patient], [200 x %struct.patient]* %1, i64 0, i64 %12
  %14 = getelementptr inbounds %struct.patient, %struct.patient* %13, i32 0, i32 0
  %15 = getelementptr inbounds [10 x i8], [10 x i8]* %14, i64 0, i64 0
  %16 = load i32, i32* %3, align 4
  %17 = sext i32 %16 to i64
  %18 = getelementptr inbounds [200 x %struct.patient], [200 x %struct.patient]* %1, i64 0, i64 %17
  %19 = getelementptr inbounds %struct.patient, %struct.patient* %18, i32 0, i32 1
  %20 = call i32 (i8*, ...) @__isoc99_scanf(i8* getelementptr inbounds ([6 x i8], [6 x i8]* @.str.1, i64 0, i64 0), i8* %15, i32* %19)
  %21 = load i32, i32* %3, align 4
  %22 = sext i32 %21 to i64
  %23 = getelementptr inbounds [200 x %struct.patient], [200 x %struct.patient]* %1, i64 0, i64 %22
  %24 = getelementptr inbounds %struct.patient, %struct.patient* %23, i32 0, i32 1
  %25 = load i32, i32* %24, align 4
  %26 = icmp sge i32 %25, 60
  br i1 %26, label %27, label %42

27:                                               ; preds = %10
  %28 = load i32, i32* %4, align 4
  %29 = sext i32 %28 to i64
  %30 = getelementptr inbounds [200 x %struct.patient], [200 x %struct.patient]* %1, i64 0, i64 %29
  %31 = load i32, i32* %3, align 4
  %32 = sext i32 %31 to i64
  %33 = getelementptr inbounds [200 x %struct.patient], [200 x %struct.patient]* %1, i64 0, i64 %32
  %34 = bitcast %struct.patient* %30 to i8*
  %35 = bitcast %struct.patient* %33 to i8*
  call void @llvm.memcpy.p0i8.p0i8.i64(i8* align 16 %34, i8* align 16 %35, i64 16, i1 false)
  %36 = load i32, i32* %4, align 4
  %37 = add nsw i32 %36, 1
  store i32 %37, i32* %4, align 4
  %38 = load i32, i32* %3, align 4
  %39 = sext i32 %38 to i64
  %40 = getelementptr inbounds [200 x %struct.patient], [200 x %struct.patient]* %1, i64 0, i64 %39
  %41 = getelementptr inbounds %struct.patient, %struct.patient* %40, i32 0, i32 1
  store i32 0, i32* %41, align 4
  br label %42

42:                                               ; preds = %27, %10
  br label %43

43:                                               ; preds = %42
  %44 = load i32, i32* %3, align 4
  %45 = add nsw i32 %44, 1
  store i32 %45, i32* %3, align 4
  br label %6

46:                                               ; preds = %6
  %47 = getelementptr inbounds [200 x %struct.patient], [200 x %struct.patient]* %1, i64 0, i64 0
  %48 = load i32, i32* %4, align 4
  call void @bubble(%struct.patient* %47, i32 %48)
  store i32 100, i32* %3, align 4
  br label %49

49:                                               ; preds = %60, %46
  %50 = load i32, i32* %3, align 4
  %51 = load i32, i32* %4, align 4
  %52 = icmp slt i32 %50, %51
  br i1 %52, label %53, label %63

53:                                               ; preds = %49
  %54 = load i32, i32* %3, align 4
  %55 = sext i32 %54 to i64
  %56 = getelementptr inbounds [200 x %struct.patient], [200 x %struct.patient]* %1, i64 0, i64 %55
  %57 = getelementptr inbounds %struct.patient, %struct.patient* %56, i32 0, i32 0
  %58 = getelementptr inbounds [10 x i8], [10 x i8]* %57, i64 0, i64 0
  %59 = call i32 (i8*, ...) @printf(i8* getelementptr inbounds ([4 x i8], [4 x i8]* @.str.2, i64 0, i64 0), i8* %58)
  br label %60

60:                                               ; preds = %53
  %61 = load i32, i32* %3, align 4
  %62 = add nsw i32 %61, 1
  store i32 %62, i32* %3, align 4
  br label %49

63:                                               ; preds = %49
  store i32 0, i32* %3, align 4
  br label %64

64:                                               ; preds = %83, %63
  %65 = load i32, i32* %3, align 4
  %66 = load i32, i32* %2, align 4
  %67 = icmp slt i32 %65, %66
  br i1 %67, label %68, label %86

68:                                               ; preds = %64
  %69 = load i32, i32* %3, align 4
  %70 = sext i32 %69 to i64
  %71 = getelementptr inbounds [200 x %struct.patient], [200 x %struct.patient]* %1, i64 0, i64 %70
  %72 = getelementptr inbounds %struct.patient, %struct.patient* %71, i32 0, i32 1
  %73 = load i32, i32* %72, align 4
  %74 = icmp ne i32 %73, 0
  br i1 %74, label %75, label %82

75:                                               ; preds = %68
  %76 = load i32, i32* %3, align 4
  %77 = sext i32 %76 to i64
  %78 = getelementptr inbounds [200 x %struct.patient], [200 x %struct.patient]* %1, i64 0, i64 %77
  %79 = getelementptr inbounds %struct.patient, %struct.patient* %78, i32 0, i32 0
  %80 = getelementptr inbounds [10 x i8], [10 x i8]* %79, i64 0, i64 0
  %81 = call i32 (i8*, ...) @printf(i8* getelementptr inbounds ([4 x i8], [4 x i8]* @.str.2, i64 0, i64 0), i8* %80)
  br label %82

82:                                               ; preds = %75, %68
  br label %83

83:                                               ; preds = %82
  %84 = load i32, i32* %3, align 4
  %85 = add nsw i32 %84, 1
  store i32 %85, i32* %3, align 4
  br label %64

86:                                               ; preds = %64
  ret void
}

declare dso_local i32 @__isoc99_scanf(i8*, ...) #1

; Function Attrs: argmemonly nounwind willreturn
declare void @llvm.memcpy.p0i8.p0i8.i64(i8* noalias nocapture writeonly, i8* noalias nocapture readonly, i64, i1 immarg) #2

; Function Attrs: noinline nounwind uwtable
define dso_local void @bubble(%struct.patient* %0, i32 %1) #0 {
  %3 = alloca %struct.patient*, align 8
  %4 = alloca i32, align 4
  %5 = alloca i32, align 4
  %6 = alloca i32, align 4
  %7 = alloca %struct.patient, align 4
  store %struct.patient* %0, %struct.patient** %3, align 8
  store i32 %1, i32* %4, align 4
  store i32 101, i32* %6, align 4
  br label %8

8:                                                ; preds = %65, %2
  %9 = load i32, i32* %6, align 4
  %10 = load i32, i32* %4, align 4
  %11 = icmp slt i32 %9, %10
  br i1 %11, label %12, label %68

12:                                               ; preds = %8
  store i32 100, i32* %5, align 4
  br label %13

13:                                               ; preds = %61, %12
  %14 = load i32, i32* %5, align 4
  %15 = load i32, i32* %4, align 4
  %16 = add nsw i32 %15, 100
  %17 = load i32, i32* %6, align 4
  %18 = sub nsw i32 %16, %17
  %19 = icmp slt i32 %14, %18
  br i1 %19, label %20, label %64

20:                                               ; preds = %13
  %21 = load %struct.patient*, %struct.patient** %3, align 8
  %22 = load i32, i32* %5, align 4
  %23 = sext i32 %22 to i64
  %24 = getelementptr inbounds %struct.patient, %struct.patient* %21, i64 %23
  %25 = getelementptr inbounds %struct.patient, %struct.patient* %24, i32 0, i32 1
  %26 = load i32, i32* %25, align 4
  %27 = load %struct.patient*, %struct.patient** %3, align 8
  %28 = load i32, i32* %5, align 4
  %29 = add nsw i32 %28, 1
  %30 = sext i32 %29 to i64
  %31 = getelementptr inbounds %struct.patient, %struct.patient* %27, i64 %30
  %32 = getelementptr inbounds %struct.patient, %struct.patient* %31, i32 0, i32 1
  %33 = load i32, i32* %32, align 4
  %34 = icmp slt i32 %26, %33
  br i1 %34, label %35, label %60

35:                                               ; preds = %20
  %36 = load %struct.patient*, %struct.patient** %3, align 8
  %37 = load i32, i32* %5, align 4
  %38 = sext i32 %37 to i64
  %39 = getelementptr inbounds %struct.patient, %struct.patient* %36, i64 %38
  %40 = bitcast %struct.patient* %7 to i8*
  %41 = bitcast %struct.patient* %39 to i8*
  call void @llvm.memcpy.p0i8.p0i8.i64(i8* align 4 %40, i8* align 4 %41, i64 16, i1 false)
  %42 = load %struct.patient*, %struct.patient** %3, align 8
  %43 = load i32, i32* %5, align 4
  %44 = sext i32 %43 to i64
  %45 = getelementptr inbounds %struct.patient, %struct.patient* %42, i64 %44
  %46 = load %struct.patient*, %struct.patient** %3, align 8
  %47 = load i32, i32* %5, align 4
  %48 = add nsw i32 %47, 1
  %49 = sext i32 %48 to i64
  %50 = getelementptr inbounds %struct.patient, %struct.patient* %46, i64 %49
  %51 = bitcast %struct.patient* %45 to i8*
  %52 = bitcast %struct.patient* %50 to i8*
  call void @llvm.memcpy.p0i8.p0i8.i64(i8* align 4 %51, i8* align 4 %52, i64 16, i1 false)
  %53 = load %struct.patient*, %struct.patient** %3, align 8
  %54 = load i32, i32* %5, align 4
  %55 = add nsw i32 %54, 1
  %56 = sext i32 %55 to i64
  %57 = getelementptr inbounds %struct.patient, %struct.patient* %53, i64 %56
  %58 = bitcast %struct.patient* %57 to i8*
  %59 = bitcast %struct.patient* %7 to i8*
  call void @llvm.memcpy.p0i8.p0i8.i64(i8* align 4 %58, i8* align 4 %59, i64 16, i1 false)
  br label %60

60:                                               ; preds = %35, %20
  br label %61

61:                                               ; preds = %60
  %62 = load i32, i32* %5, align 4
  %63 = add nsw i32 %62, 1
  store i32 %63, i32* %5, align 4
  br label %13

64:                                               ; preds = %13
  br label %65

65:                                               ; preds = %64
  %66 = load i32, i32* %6, align 4
  %67 = add nsw i32 %66, 1
  store i32 %67, i32* %6, align 4
  br label %8

68:                                               ; preds = %8
  ret void
}

declare dso_local i32 @printf(i8*, ...) #1


!llvm.module.flags = !{!0}
!llvm.ident = !{!1}

!0 = !{i32 1, !"wchar_size", i32 4}
!1 = !{!"clang version 10.0.0-4ubuntu1 "}
